target datalayout = "e-m:e-p270:32:32-p271:32:32-p272:64:64-i64:64-i128:128-f80:128-n8:16:32:64-S128"
target triple = "x86_64-pc-linux-gnu"

@stderr = external global ptr, align 8
@.str.1 = private unnamed_addr constant [5 x i8] c"%s: \00", align 1
@.str.2 = private unnamed_addr constant [4 x i8] c"%s\0A\00", align 1

; Function Attrs: nounwind uwtable
define internal void @l_message(ptr noundef %0, ptr noundef %1) #0 {
  %3 = alloca ptr, align 8
  %4 = alloca ptr, align 8
  store ptr %0, ptr %3, align 8, !tbaa !13
  store ptr %1, ptr %4, align 8, !tbaa !13
  %5 = load ptr, ptr %3, align 8, !tbaa !13
  %6 = icmp ne ptr %5, null
  br i1 %6, label %7, label %13

7:                                                ; preds = %2
  %8 = load ptr, ptr @stderr, align 8, !tbaa !15
  %9 = load ptr, ptr %3, align 8, !tbaa !13
  %10 = call i32 (ptr, ptr, ...) @fprintf(ptr noundef %8, ptr noundef @.str.1, ptr noundef %9) #5
  %11 = load ptr, ptr @stderr, align 8, !tbaa !15
  %12 = call i32 @fflush(ptr noundef %11)
  br label %13

13:                                               ; preds = %7, %2
  %14 = load ptr, ptr @stderr, align 8, !tbaa !15
  %15 = load ptr, ptr %4, align 8, !tbaa !13
  %16 = call i32 (ptr, ptr, ...) @fprintf(ptr noundef %14, ptr noundef @.str.2, ptr noundef %15) #5
  %17 = load ptr, ptr @stderr, align 8, !tbaa !15
  %18 = call i32 @fflush(ptr noundef %17)
  ret void
}