; Function Attrs: cold nofree nounwind uwtable
define internal fastcc void @l_message(ptr noundef %0, ptr noundef %1) unnamed_addr #3 {
  %.not = icmp eq ptr %0, null
  br i1 %.not, label %8, label %3

3:                                                ; preds = %2
  %4 = load ptr, ptr @stderr, align 8, !tbaa !9
  %5 = tail call i32 (ptr, ptr, ...) @fprintf(ptr noundef %4, ptr noundef nonnull @.str.1, ptr noundef nonnull %0) #11
  %6 = load ptr, ptr @stderr, align 8, !tbaa !9
  %7 = tail call i32 @fflush(ptr noundef %6)
  br label %8

8:                                                ; preds = %3, %2
  %9 = load ptr, ptr @stderr, align 8, !tbaa !9
  %10 = tail call i32 (ptr, ptr, ...) @fprintf(ptr noundef %9, ptr noundef nonnull @.str.2, ptr noundef %1) #11
  %11 = load ptr, ptr @stderr, align 8, !tbaa !9
  %12 = tail call i32 @fflush(ptr noundef %11)
  ret void
}